; Function Attrs: nounwind uwtable
define ptr @l_Lean_PersistentHashMap_instGetElemOptionTrue___rarg(ptr noundef %0, ptr noundef %1, ptr noundef %2, ptr noundef %3, ptr readnone captures(none) %4) #2 {
  %6 = ptrtoint ptr %3 to i64
  %7 = and i64 %6, 1
  %.not.i = icmp eq i64 %7, 0
  br i1 %.not.i, label %8, label %lean_inc.exit.i

8:                                                ; preds = %5
  %.val.i.i = load i32, ptr %3, align 4, !tbaa !4
  %9 = icmp sgt i32 %.val.i.i, 0
  br i1 %9, label %10, label %12, !prof !11

10:                                               ; preds = %8
  %11 = add nuw i32 %.val.i.i, 1
  store i32 %11, ptr %3, align 4, !tbaa !4
  br label %lean_inc.exit.i

12:                                               ; preds = %8
  %.not.i10.i = icmp eq i32 %.val.i.i, 0
  br i1 %.not.i10.i, label %lean_inc.exit.i, label %13

13:                                               ; preds = %12
  tail call void @lean_inc_ref_cold(ptr noundef nonnull %3) #7
  br label %lean_inc.exit.i

lean_inc.exit.i:                                  ; preds = %13, %12, %10, %5
  %14 = tail call ptr @lean_apply_1(ptr noundef %1, ptr noundef %3) #7
  %15 = getelementptr i8, ptr %14, i64 8
  %.val.i = load i64, ptr %15, align 8, !tbaa !12
  %16 = ptrtoint ptr %14 to i64
  %17 = and i64 %16, 1
  %.not11.i = icmp eq i64 %17, 0
  br i1 %.not11.i, label %18, label %l_Lean_PersistentHashMap_find_x3f___rarg.exit

18:                                               ; preds = %lean_inc.exit.i
  %19 = load i32, ptr %14, align 4, !tbaa !4
  %20 = icmp sgt i32 %19, 1
  br i1 %20, label %21, label %23, !prof !11

21:                                               ; preds = %18
  %22 = add nsw i32 %19, -1
  store i32 %22, ptr %14, align 4, !tbaa !4
  br label %l_Lean_PersistentHashMap_find_x3f___rarg.exit

23:                                               ; preds = %18
  %.not.i.i = icmp eq i32 %19, 0
  br i1 %.not.i.i, label %l_Lean_PersistentHashMap_find_x3f___rarg.exit, label %24

24:                                               ; preds = %23
  tail call void @lean_dec_ref_cold(ptr noundef nonnull %14) #7
  br label %l_Lean_PersistentHashMap_find_x3f___rarg.exit

l_Lean_PersistentHashMap_find_x3f___rarg.exit:    ; preds = %lean_inc.exit.i, %21, %23, %24
  %25 = tail call ptr @l_Lean_PersistentHashMap_findAux___rarg(ptr noundef %0, ptr noundef %2, i64 noundef %.val.i, ptr noundef %3)
  ret ptr %25
}